target datalayout = "e-m:e-p270:32:32-p271:32:32-p272:64:64-i64:64-i128:128-f80:128-n8:16:32:64-S128"
target triple = "x86_64-pc-linux-gnu"

@simple_econtext_stack = internal global ptr null, align 8
@shared_simple_eval_estate = internal global ptr null, align 8
@shared_simple_eval_resowner = internal global ptr null, align 8

; Function Attrs: nounwind uwtable
define hidden void @plpgsql_xact_cb(i32 noundef %0, ptr noundef %1) #0 {
  %3 = alloca i32, align 4
  %4 = alloca ptr, align 8
  store i32 %0, ptr %3, align 4
  store ptr %1, ptr %4, align 8
  %5 = load i32, ptr %3, align 4
  %6 = icmp eq i32 %5, 0
  br i1 %6, label %13, label %7

7:                                                ; preds = %2
  %8 = load i32, ptr %3, align 4
  %9 = icmp eq i32 %8, 1
  br i1 %9, label %13, label %10

10:                                               ; preds = %7
  %11 = load i32, ptr %3, align 4
  %12 = icmp eq i32 %11, 4
  br i1 %12, label %13, label %24

13:                                               ; preds = %10, %7, %2
  store ptr null, ptr @simple_econtext_stack, align 8
  %14 = load ptr, ptr @shared_simple_eval_estate, align 8
  %15 = icmp ne ptr %14, null
  br i1 %15, label %16, label %18

16:                                               ; preds = %13
  %17 = load ptr, ptr @shared_simple_eval_estate, align 8
  call void @FreeExecutorState(ptr noundef %17)
  br label %18

18:                                               ; preds = %16, %13
  store ptr null, ptr @shared_simple_eval_estate, align 8
  %19 = load ptr, ptr @shared_simple_eval_resowner, align 8
  %20 = icmp ne ptr %19, null
  br i1 %20, label %21, label %23

21:                                               ; preds = %18
  %22 = load ptr, ptr @shared_simple_eval_resowner, align 8
  call void @ReleaseAllPlanCacheRefsInOwner(ptr noundef %22)
  br label %23

23:                                               ; preds = %21, %18
  store ptr null, ptr @shared_simple_eval_resowner, align 8
  br label %32

24:                                               ; preds = %10
  %25 = load i32, ptr %3, align 4
  %26 = icmp eq i32 %25, 2
  br i1 %26, label %30, label %27

27:                                               ; preds = %24
  %28 = load i32, ptr %3, align 4
  %29 = icmp eq i32 %28, 3
  br i1 %29, label %30, label %31

30:                                               ; preds = %27, %24
  store ptr null, ptr @simple_econtext_stack, align 8
  store ptr null, ptr @shared_simple_eval_estate, align 8
  store ptr null, ptr @shared_simple_eval_resowner, align 8
  br label %31

31:                                               ; preds = %30, %27
  br label %32

32:                                               ; preds = %31, %23
  ret void
}