; Function Attrs: nounwind uwtable
define hidden void @plpgsql_xact_cb(i32 noundef %0, ptr noundef readnone captures(none) %1) local_unnamed_addr #0 {
  switch i32 %0, label %9 [
    i32 4, label %3
    i32 1, label %3
    i32 0, label %3
  ]

3:                                                ; preds = %2, %2, %2
  store ptr null, ptr @simple_econtext_stack, align 8
  %4 = load ptr, ptr @shared_simple_eval_estate, align 8
  %.not = icmp eq ptr %4, null
  br i1 %.not, label %6, label %5

5:                                                ; preds = %3
  tail call void @FreeExecutorState(ptr noundef nonnull %4) #12
  br label %6

6:                                                ; preds = %5, %3
  store ptr null, ptr @shared_simple_eval_estate, align 8
  %7 = load ptr, ptr @shared_simple_eval_resowner, align 8
  %.not12 = icmp eq ptr %7, null
  br i1 %.not12, label %.sink.split, label %8

8:                                                ; preds = %6
  tail call void @ReleaseAllPlanCacheRefsInOwner(ptr noundef nonnull %7) #12
  br label %.sink.split

9:                                                ; preds = %2
  %10 = and i32 %0, -2
  %or.cond5 = icmp eq i32 %10, 2
  br i1 %or.cond5, label %11, label %12

11:                                               ; preds = %9
  store ptr null, ptr @simple_econtext_stack, align 8
  store ptr null, ptr @shared_simple_eval_estate, align 8
  br label %.sink.split

.sink.split:                                      ; preds = %6, %8, %11
  store ptr null, ptr @shared_simple_eval_resowner, align 8
  br label %12

12:                                               ; preds = %.sink.split, %9
  ret void
}